target datalayout = "e-m:e-p270:32:32-p271:32:32-p272:64:64-i64:64-i128:128-f80:128-n8:16:32:64-S128"
target triple = "x86_64-pc-linux-gnu"

%struct._VAConfigAttrib = type { i32, i32 }
%struct.AVCodecContext = type { ptr, i32, i32, ptr, i32, i32, ptr, ptr, ptr, i64, i32, i32, ptr, i32, %struct.AVRational, %struct.AVRational, %struct.AVRational, i32, i32, i32, i32, i32, %struct.AVRational, i32, i32, i32, i32, i32, i32, i32, i32, i32, i32, i32, ptr, ptr, i32, float, float, float, float, float, float, float, float, float, i32, i32, i32, i32, i32, i32, i32, i32, i32, i32, i32, i32, ptr, ptr, ptr, i32, i32, i32, i32, i32, i32, i32, i32, i32, i32, %struct.AVChannelLayout, i32, i32, i32, i32, i32, i32, i32, i32, ptr, i32, i32, i32, float, float, i32, i32, i32, i32, i32, ptr, i64, i64, float, float, i32, i32, ptr, ptr, i32, i32, i32, i32, i32, ptr, ptr, ptr, ptr, i32, i32, [8 x i64], i32, i32, i32, i32, i32, i32, i32, ptr, ptr, i32, i32, i32, i32, i32, i32, i32, i32, i32, i32, ptr, ptr, i32, i32, ptr, ptr, ptr, ptr, i32, i32, i64, i32, i32, i64, ptr, i64, ptr, i32, ptr, i32 }
%struct.AVRational = type { i32, i32 }
%struct.AVChannelLayout = type { i32, i32, %union.anon, ptr }
%union.anon = type { i64 }
%struct.VAAPIEncodeContext = type { %struct.FFHWBaseEncodeContext, ptr, i32, i32, i32, i32, i32, i32, ptr, ptr, i32, i32, i32, i32, i32, i32, [4 x %struct._VAConfigAttrib], i32, i32, i32, ptr, ptr, [4 x i32], [4 x ptr], [4 x i64], i32, %struct._VAEncMiscParameterRateControl, %struct._VAEncMiscParameterHRD, %struct._VAEncMiscParameterFrameRate, %struct._VAEncMiscParameterBufferMaxFrameSize, %struct._VAEncMiscParameterBufferQualityLevel, ptr, ptr, i32, i32, i32, i32, i32, i32, [20 x i32], [22 x i32], [21 x i32], [23 x i32], i32, i32, ptr, i32, i32 }
%struct.FFHWBaseEncodeContext = type { ptr, ptr, ptr, i32, i32, i32, i32, i32, i32, ptr, ptr, ptr, ptr, ptr, ptr, ptr, ptr, [2 x ptr], i32, i64, i64, i64, i64, i64, i64, i64, [112 x i64], i32, i32, i32, i32, i32, i32, i32, i32, i32, i32, i32, i32, i32, i32, i32, i32, ptr, i32, ptr, i32, ptr }
%struct._VAEncMiscParameterRateControl = type { i32, i32, i32, i32, i32, i32, %union.anon.0, i32, i32, i32, i32, [4 x i32] }
%union.anon.0 = type { %struct.anon }
%struct.anon = type { i32 }
%struct._VAEncMiscParameterHRD = type { i32, i32, [4 x i32] }
%struct._VAEncMiscParameterFrameRate = type { i32, %union.anon.1, [4 x i32] }
%union.anon.1 = type { %struct.anon.2 }
%struct.anon.2 = type { i32 }
%struct._VAEncMiscParameterBufferMaxFrameSize = type { i32, i32, [4 x i32] }
%struct._VAEncMiscParameterBufferQualityLevel = type { i32, [4 x i32] }
%struct.AVVAAPIDeviceContext = type { ptr, i32 }
%union._VAConfigAttribValMaxFrameSize = type { %struct.anon.6 }
%struct.anon.6 = type { i32 }

@__const.vaapi_encode_init_max_frame_size.attr = private unnamed_addr constant %struct._VAConfigAttrib { i32 38, i32 0 }, align 4
@.str.155 = private unnamed_addr constant [53 x i8] c"Max frame size is invalid in CQP rate control mode.\0A\00", align 1
@.str.156 = private unnamed_addr constant [59 x i8] c"Failed to query max frame size config attribute: %d (%s).\0A\00", align 1
@.str.157 = private unnamed_addr constant [44 x i8] c"Max frame size attribute is not supported.\0A\00", align 1
@.str.158 = private unnamed_addr constant [93 x i8] c"Driver only supports multiple pass max frame size which has not been implemented in FFmpeg.\0A\00", align 1
@.str.159 = private unnamed_addr constant [31 x i8] c"Set max frame size: %d bytes.\0A\00", align 1

; Function Attrs: cold nounwind optsize uwtable
define internal i32 @vaapi_encode_init_max_frame_size(ptr noundef %0) #2 {
  %2 = alloca i32, align 4
  %3 = alloca ptr, align 8
  %4 = alloca ptr, align 8
  %5 = alloca %struct._VAConfigAttrib, align 4
  %6 = alloca i32, align 4
  %7 = alloca i32, align 4
  %8 = alloca %union._VAConfigAttribValMaxFrameSize, align 4
  %9 = alloca %struct._VAEncMiscParameterBufferMaxFrameSize, align 4
  store ptr %0, ptr %3, align 8, !tbaa !4
  call void @llvm.lifetime.start.p0(i64 8, ptr %4) #10
  %10 = load ptr, ptr %3, align 8, !tbaa !4
  %11 = getelementptr inbounds nuw %struct.AVCodecContext, ptr %10, i32 0, i32 6
  %12 = load ptr, ptr %11, align 8, !tbaa !11
  store ptr %12, ptr %4, align 8, !tbaa !33
  call void @llvm.lifetime.start.p0(i64 8, ptr %5) #10
  call void @llvm.memcpy.p0.p0.i64(ptr align 4 %5, ptr align 4 @__const.vaapi_encode_init_max_frame_size.attr, i64 8, i1 false)
  call void @llvm.lifetime.start.p0(i64 4, ptr %6) #10
  %13 = load ptr, ptr %4, align 8, !tbaa !33
  %14 = getelementptr inbounds nuw %struct.VAAPIEncodeContext, ptr %13, i32 0, i32 13
  %15 = load i32, ptr %14, align 4, !tbaa !176
  %16 = icmp eq i32 %15, 16
  br i1 %16, label %17, label %21

17:                                               ; preds = %1
  %18 = load ptr, ptr %4, align 8, !tbaa !33
  %19 = getelementptr inbounds nuw %struct.VAAPIEncodeContext, ptr %18, i32 0, i32 3
  store i32 0, ptr %19, align 4, !tbaa !74
  %20 = load ptr, ptr %3, align 8, !tbaa !4
  call void (ptr, i32, ptr, ...) @av_log(ptr noundef %20, i32 noundef 16, ptr noundef @.str.155)
  store i32 -22, ptr %2, align 4
  store i32 1, ptr %7, align 4
  br label %82

21:                                               ; preds = %1
  %22 = load ptr, ptr %4, align 8, !tbaa !33
  %23 = getelementptr inbounds nuw %struct.VAAPIEncodeContext, ptr %22, i32 0, i32 20
  %24 = load ptr, ptr %23, align 8, !tbaa !62
  %25 = getelementptr inbounds nuw %struct.AVVAAPIDeviceContext, ptr %24, i32 0, i32 0
  %26 = load ptr, ptr %25, align 8, !tbaa !75
  %27 = load ptr, ptr %4, align 8, !tbaa !33
  %28 = getelementptr inbounds nuw %struct.VAAPIEncodeContext, ptr %27, i32 0, i32 11
  %29 = load i32, ptr %28, align 4, !tbaa !77
  %30 = load ptr, ptr %4, align 8, !tbaa !33
  %31 = getelementptr inbounds nuw %struct.VAAPIEncodeContext, ptr %30, i32 0, i32 12
  %32 = load i32, ptr %31, align 8, !tbaa !78
  %33 = call i32 @vaGetConfigAttributes(ptr noundef %26, i32 noundef %29, i32 noundef %32, ptr noundef %5, i32 noundef 1)
  store i32 %33, ptr %6, align 4, !tbaa !37
  %34 = load i32, ptr %6, align 4, !tbaa !37
  %35 = icmp ne i32 %34, 0
  br i1 %35, label %36, label %43

36:                                               ; preds = %21
  %37 = load ptr, ptr %4, align 8, !tbaa !33
  %38 = getelementptr inbounds nuw %struct.VAAPIEncodeContext, ptr %37, i32 0, i32 3
  store i32 0, ptr %38, align 4, !tbaa !74
  %39 = load ptr, ptr %3, align 8, !tbaa !4
  %40 = load i32, ptr %6, align 4, !tbaa !37
  %41 = load i32, ptr %6, align 4, !tbaa !37
  %42 = call ptr @vaErrorStr(i32 noundef %41)
  call void (ptr, i32, ptr, ...) @av_log(ptr noundef %39, i32 noundef 16, ptr noundef @.str.156, i32 noundef %40, ptr noundef %42)
  store i32 -542398533, ptr %2, align 4
  store i32 1, ptr %7, align 4
  br label %82

43:                                               ; preds = %21
  %44 = getelementptr inbounds nuw %struct._VAConfigAttrib, ptr %5, i32 0, i32 1
  %45 = load i32, ptr %44, align 4, !tbaa !149
  %46 = icmp eq i32 %45, -2147483648
  br i1 %46, label %47, label %51

47:                                               ; preds = %43
  %48 = load ptr, ptr %4, align 8, !tbaa !33
  %49 = getelementptr inbounds nuw %struct.VAAPIEncodeContext, ptr %48, i32 0, i32 3
  store i32 0, ptr %49, align 4, !tbaa !74
  %50 = load ptr, ptr %3, align 8, !tbaa !4
  call void (ptr, i32, ptr, ...) @av_log(ptr noundef %50, i32 noundef 16, ptr noundef @.str.157)
  store i32 -22, ptr %2, align 4
  store i32 1, ptr %7, align 4
  br label %82

51:                                               ; preds = %43
  call void @llvm.lifetime.start.p0(i64 4, ptr %8) #10
  %52 = getelementptr inbounds nuw %struct._VAConfigAttrib, ptr %5, i32 0, i32 1
  %53 = load i32, ptr %52, align 4, !tbaa !149
  store i32 %53, ptr %8, align 4, !tbaa !158
  %54 = load i32, ptr %8, align 4
  %55 = and i32 %54, 1
  %56 = icmp ne i32 %55, 0
  br i1 %56, label %66, label %57

57:                                               ; preds = %51
  %58 = load i32, ptr %8, align 4
  %59 = lshr i32 %58, 1
  %60 = and i32 %59, 1
  %61 = icmp ne i32 %60, 0
  br i1 %61, label %62, label %66

62:                                               ; preds = %57
  %63 = load ptr, ptr %4, align 8, !tbaa !33
  %64 = getelementptr inbounds nuw %struct.VAAPIEncodeContext, ptr %63, i32 0, i32 3
  store i32 0, ptr %64, align 4, !tbaa !74
  %65 = load ptr, ptr %3, align 8, !tbaa !4
  call void (ptr, i32, ptr, ...) @av_log(ptr noundef %65, i32 noundef 16, ptr noundef @.str.158)
  store i32 -22, ptr %2, align 4
  store i32 1, ptr %7, align 4
  br label %78

66:                                               ; preds = %57, %51
  %67 = load ptr, ptr %4, align 8, !tbaa !33
  %68 = getelementptr inbounds nuw %struct.VAAPIEncodeContext, ptr %67, i32 0, i32 29
  call void @llvm.memset.p0.i64(ptr align 4 %9, i8 0, i64 24, i1 false)
  %69 = getelementptr inbounds nuw %struct._VAEncMiscParameterBufferMaxFrameSize, ptr %9, i32 0, i32 1
  %70 = load ptr, ptr %4, align 8, !tbaa !33
  %71 = getelementptr inbounds nuw %struct.VAAPIEncodeContext, ptr %70, i32 0, i32 3
  %72 = load i32, ptr %71, align 4, !tbaa !74
  %73 = mul nsw i32 %72, 8
  store i32 %73, ptr %69, align 4, !tbaa !213
  call void @llvm.memcpy.p0.p0.i64(ptr align 8 %68, ptr align 4 %9, i64 24, i1 false), !tbaa.struct !193
  %74 = load ptr, ptr %3, align 8, !tbaa !4
  %75 = load ptr, ptr %4, align 8, !tbaa !33
  %76 = getelementptr inbounds nuw %struct.VAAPIEncodeContext, ptr %75, i32 0, i32 3
  %77 = load i32, ptr %76, align 4, !tbaa !74
  call void (ptr, i32, ptr, ...) @av_log(ptr noundef %74, i32 noundef 40, ptr noundef @.str.159, i32 noundef %77)
  store i32 0, ptr %7, align 4
  br label %78

78:                                               ; preds = %66, %62
  call void @llvm.lifetime.end.p0(i64 4, ptr %8) #10
  %79 = load i32, ptr %7, align 4
  switch i32 %79, label %82 [
    i32 0, label %80
  ]

80:                                               ; preds = %78
  br label %81

81:                                               ; preds = %80
  store i32 0, ptr %2, align 4
  store i32 1, ptr %7, align 4
  br label %82

82:                                               ; preds = %81, %78, %47, %36, %17
  call void @llvm.lifetime.end.p0(i64 4, ptr %6) #10
  call void @llvm.lifetime.end.p0(i64 8, ptr %5) #10
  call void @llvm.lifetime.end.p0(i64 8, ptr %4) #10
  %83 = load i32, ptr %2, align 4
  ret i32 %83
}