; Function Attrs: cold nounwind optsize uwtable
define internal fastcc range(i32 -542398533, 1) i32 @vaapi_encode_init_max_frame_size(ptr noundef %0) unnamed_addr #2 {
  %2 = alloca %struct._VAConfigAttrib, align 8
  %3 = getelementptr inbounds nuw i8, ptr %0, i64 32
  %4 = load ptr, ptr %3, align 8, !tbaa !4
  call void @llvm.lifetime.start.p0(i64 8, ptr nonnull %2) #9
  store i64 38, ptr %2, align 8
  %5 = getelementptr inbounds nuw i8, ptr %4, i64 1252
  %6 = load i32, ptr %5, align 4, !tbaa !158
  %7 = icmp eq i32 %6, 16
  br i1 %7, label %8, label %10

8:                                                ; preds = %1
  %9 = getelementptr inbounds nuw i8, ptr %4, i64 1204
  store i32 0, ptr %9, align 4, !tbaa !64
  tail call void (ptr, i32, ptr, ...) @av_log(ptr noundef nonnull %0, i32 noundef 16, ptr noundef nonnull @.str.155) #9
  br label %37

10:                                               ; preds = %1
  %11 = getelementptr inbounds nuw i8, ptr %4, i64 1312
  %12 = load ptr, ptr %11, align 8, !tbaa !52
  %13 = load ptr, ptr %12, align 8, !tbaa !65
  %14 = getelementptr inbounds nuw i8, ptr %4, i64 1244
  %15 = load i32, ptr %14, align 4, !tbaa !67
  %16 = getelementptr inbounds nuw i8, ptr %4, i64 1248
  %17 = load i32, ptr %16, align 8, !tbaa !68
  %18 = call i32 @vaGetConfigAttributes(ptr noundef %13, i32 noundef %15, i32 noundef %17, ptr noundef nonnull %2, i32 noundef 1) #9
  %.not = icmp eq i32 %18, 0
  br i1 %.not, label %22, label %19

19:                                               ; preds = %10
  %20 = getelementptr inbounds nuw i8, ptr %4, i64 1204
  store i32 0, ptr %20, align 4, !tbaa !64
  %21 = call ptr @vaErrorStr(i32 noundef %18) #9
  call void (ptr, i32, ptr, ...) @av_log(ptr noundef nonnull %0, i32 noundef 16, ptr noundef nonnull @.str.156, i32 noundef %18, ptr noundef %21) #9
  br label %37

22:                                               ; preds = %10
  %23 = getelementptr inbounds nuw i8, ptr %2, i64 4
  %24 = load i32, ptr %23, align 4, !tbaa !132
  %25 = icmp eq i32 %24, -2147483648
  br i1 %25, label %26, label %28

26:                                               ; preds = %22
  %27 = getelementptr inbounds nuw i8, ptr %4, i64 1204
  store i32 0, ptr %27, align 4, !tbaa !64
  call void (ptr, i32, ptr, ...) @av_log(ptr noundef nonnull %0, i32 noundef 16, ptr noundef nonnull @.str.157) #9
  br label %37

28:                                               ; preds = %22
  %29 = and i32 %24, 3
  %or.cond.not = icmp eq i32 %29, 2
  br i1 %or.cond.not, label %30, label %32

30:                                               ; preds = %28
  %31 = getelementptr inbounds nuw i8, ptr %4, i64 1204
  store i32 0, ptr %31, align 4, !tbaa !64
  call void (ptr, i32, ptr, ...) @av_log(ptr noundef nonnull %0, i32 noundef 16, ptr noundef nonnull @.str.158) #9
  br label %37

32:                                               ; preds = %28
  %33 = getelementptr inbounds nuw i8, ptr %4, i64 1520
  %34 = getelementptr inbounds nuw i8, ptr %4, i64 1204
  %35 = load i32, ptr %34, align 4, !tbaa !64
  %36 = shl nsw i32 %35, 3
  store i32 0, ptr %33, align 8, !tbaa !109
  %.sroa.2.0..sroa_idx = getelementptr inbounds nuw i8, ptr %4, i64 1524
  store i32 %36, ptr %.sroa.2.0..sroa_idx, align 4, !tbaa !109
  %.sroa.3.0..sroa_idx = getelementptr inbounds nuw i8, ptr %4, i64 1528
  call void @llvm.memset.p0.i64(ptr noundef nonnull align 8 dereferenceable(16) %.sroa.3.0..sroa_idx, i8 0, i64 16, i1 false)
  call void (ptr, i32, ptr, ...) @av_log(ptr noundef nonnull %0, i32 noundef 40, ptr noundef nonnull @.str.159, i32 noundef %35) #9
  br label %37

37:                                               ; preds = %32, %30, %26, %19, %8
  %.0 = phi i32 [ -22, %8 ], [ -542398533, %19 ], [ -22, %26 ], [ 0, %32 ], [ -22, %30 ]
  call void @llvm.lifetime.end.p0(i64 8, ptr nonnull %2) #9
  ret i32 %.0
}